target datalayout = "e-m:e-p270:32:32-p271:32:32-p272:64:64-i64:64-i128:128-f80:128-n8:16:32:64-S128"
target triple = "x86_64-pc-linux-gnu"

%"class.icu_77::Locale" = type <{ %"class.icu_77::UObject", [12 x i8], [6 x i8], [4 x i8], [2 x i8], i32, [4 x i8], ptr, [157 x i8], [3 x i8], ptr, i8, [7 x i8] }>
%"class.icu_77::UObject" = type { ptr }
%"class.icu_77::ErrorCode" = type <{ ptr, i32, [4 x i8] }>

@_ZN6icu_77L24availableLocaleListCountE = internal global i32 0, align 4
@_ZN6icu_77L19availableLocaleListE = internal global ptr null, align 8
@_ZN12_GLOBAL__N_122gAvailableLocaleCountsE = internal global [2 x i32] zeroinitializer, align 4
@_ZN12_GLOBAL__N_121gAvailableLocaleNamesE = internal global [2 x ptr] zeroinitializer, align 16
@_ZTVN6icu_779ErrorCodeE = external unnamed_addr constant { [5 x ptr] }, align 8

; Function Attrs: inlinehint mustprogress nounwind uwtable
define internal noundef signext i8 @_ZL9U_FAILURE10UErrorCode(i32 noundef %0) #7 {
  %2 = alloca i32, align 4
  store i32 %0, ptr %2, align 4, !tbaa !31
  %3 = load i32, ptr %2, align 4, !tbaa !31
  %4 = icmp sgt i32 %3, 0
  %5 = zext i1 %4 to i8
  ret i8 %5
}

; Function Attrs: mustprogress uwtable
define linkonce_odr noundef signext i8 @_ZNK6icu_779ErrorCode9isFailureEv(ptr noundef nonnull align 8 dereferenceable(12) %0) #0 comdat align 2 {
  %2 = alloca ptr, align 8
  store ptr %0, ptr %2, align 8, !tbaa !22
  %3 = load ptr, ptr %2, align 8
  %4 = getelementptr inbounds nuw %"class.icu_77::ErrorCode", ptr %3, i32 0, i32 1
  %5 = load i32, ptr %4, align 8, !tbaa !26
  %6 = call noundef signext i8 @_ZL9U_FAILURE10UErrorCode(i32 noundef %5)
  ret i8 %6
}

; Function Attrs: mustprogress nounwind uwtable
define linkonce_odr noundef nonnull align 4 dereferenceable(4) ptr @_ZN6icu_779ErrorCodecvR10UErrorCodeEv(ptr noundef nonnull align 8 dereferenceable(12) %0) #6 comdat align 2 {
  %2 = alloca ptr, align 8
  store ptr %0, ptr %2, align 8, !tbaa !22
  %3 = load ptr, ptr %2, align 8
  %4 = getelementptr inbounds nuw %"class.icu_77::ErrorCode", ptr %3, i32 0, i32 1
  ret ptr %4
}

; Function Attrs: mustprogress nounwind uwtable
define linkonce_odr void @_ZN6icu_779ErrorCodeC2Ev(ptr noundef nonnull align 8 dereferenceable(12) %0) unnamed_addr #6 comdat align 2 {
  %2 = alloca ptr, align 8
  store ptr %0, ptr %2, align 8, !tbaa !22
  %3 = load ptr, ptr %2, align 8
  store ptr getelementptr inbounds inrange(-16, 24) ({ [5 x ptr] }, ptr @_ZTVN6icu_779ErrorCodeE, i32 0, i32 0, i32 2), ptr %3, align 8, !tbaa !24
  %4 = getelementptr inbounds nuw %"class.icu_77::ErrorCode", ptr %3, i32 0, i32 1
  store i32 0, ptr %4, align 8, !tbaa !26
  ret void
}

; Function Attrs: mustprogress uwtable
define ptr @uloc_getAvailable_77(i32 noundef %0) #0 personality ptr @__gxx_personality_v0 {
  %2 = alloca ptr, align 8
  %3 = alloca i32, align 4
  %4 = alloca %"class.icu_77::ErrorCode", align 8
  %5 = alloca ptr, align 8
  %6 = alloca i32, align 4
  %7 = alloca i32, align 4
  store i32 %0, ptr %3, align 4, !tbaa !3
  call void @llvm.lifetime.start.p0(i64 16, ptr %4) #12
  call void @_ZN6icu_779ErrorCodeC2Ev(ptr noundef nonnull align 8 dereferenceable(12) %4)
  %8 = invoke noundef nonnull align 4 dereferenceable(4) ptr @_ZN6icu_779ErrorCodecvR10UErrorCodeEv(ptr noundef nonnull align 8 dereferenceable(12) %4)
          to label %9 unwind label %15

9:                                                ; preds = %1
  invoke void @_ZN12_GLOBAL__N_122_load_installedLocalesER10UErrorCode(ptr noundef nonnull align 4 dereferenceable(4) %8)
          to label %10 unwind label %15

10:                                               ; preds = %9
  %11 = invoke noundef signext i8 @_ZNK6icu_779ErrorCode9isFailureEv(ptr noundef nonnull align 8 dereferenceable(12) %4)
          to label %12 unwind label %15

12:                                               ; preds = %10
  %13 = icmp ne i8 %11, 0
  br i1 %13, label %14, label %19

14:                                               ; preds = %12
  store ptr null, ptr %2, align 8
  store i32 1, ptr %7, align 4
  br label %30

15:                                               ; preds = %10, %9, %1
  %16 = landingpad { ptr, i32 }
          cleanup
  %17 = extractvalue { ptr, i32 } %16, 0
  store ptr %17, ptr %5, align 8
  %18 = extractvalue { ptr, i32 } %16, 1
  store i32 %18, ptr %6, align 4
  call void @_ZN6icu_779ErrorCodeD1Ev(ptr noundef nonnull align 8 dereferenceable(12) %4) #12
  call void @llvm.lifetime.end.p0(i64 16, ptr %4) #12
  br label %32

19:                                               ; preds = %12
  %20 = load i32, ptr %3, align 4, !tbaa !3
  %21 = load i32, ptr @_ZN12_GLOBAL__N_122gAvailableLocaleCountsE, align 4, !tbaa !3
  %22 = icmp sgt i32 %20, %21
  br i1 %22, label %23, label %24

23:                                               ; preds = %19
  store ptr null, ptr %2, align 8
  store i32 1, ptr %7, align 4
  br label %30

24:                                               ; preds = %19
  %25 = load ptr, ptr @_ZN12_GLOBAL__N_121gAvailableLocaleNamesE, align 16, !tbaa !12
  %26 = load i32, ptr %3, align 4, !tbaa !3
  %27 = sext i32 %26 to i64
  %28 = getelementptr inbounds ptr, ptr %25, i64 %27
  %29 = load ptr, ptr %28, align 8, !tbaa !15
  store ptr %29, ptr %2, align 8
  store i32 1, ptr %7, align 4
  br label %30

30:                                               ; preds = %24, %23, %14
  call void @_ZN6icu_779ErrorCodeD1Ev(ptr noundef nonnull align 8 dereferenceable(12) %4) #12
  call void @llvm.lifetime.end.p0(i64 16, ptr %4) #12
  %31 = load ptr, ptr %2, align 8
  ret ptr %31

32:                                               ; preds = %15
  %33 = load ptr, ptr %5, align 8
  %34 = load i32, ptr %6, align 4
  %35 = insertvalue { ptr, i32 } poison, ptr %33, 0
  %36 = insertvalue { ptr, i32 } %35, i32 %34, 1
  resume { ptr, i32 } %36
}

; Function Attrs: mustprogress uwtable
define i32 @uloc_countAvailable_77() #0 personality ptr @__gxx_personality_v0 {
  %1 = alloca i32, align 4
  %2 = alloca %"class.icu_77::ErrorCode", align 8
  %3 = alloca ptr, align 8
  %4 = alloca i32, align 4
  %5 = alloca i32, align 4
  call void @llvm.lifetime.start.p0(i64 16, ptr %2) #12
  call void @_ZN6icu_779ErrorCodeC2Ev(ptr noundef nonnull align 8 dereferenceable(12) %2)
  %6 = invoke noundef nonnull align 4 dereferenceable(4) ptr @_ZN6icu_779ErrorCodecvR10UErrorCodeEv(ptr noundef nonnull align 8 dereferenceable(12) %2)
          to label %7 unwind label %13

7:                                                ; preds = %0
  invoke void @_ZN12_GLOBAL__N_122_load_installedLocalesER10UErrorCode(ptr noundef nonnull align 4 dereferenceable(4) %6)
          to label %8 unwind label %13

8:                                                ; preds = %7
  %9 = invoke noundef signext i8 @_ZNK6icu_779ErrorCode9isFailureEv(ptr noundef nonnull align 8 dereferenceable(12) %2)
          to label %10 unwind label %13

10:                                               ; preds = %8
  %11 = icmp ne i8 %9, 0
  br i1 %11, label %12, label %17

12:                                               ; preds = %10
  store i32 0, ptr %1, align 4
  store i32 1, ptr %5, align 4
  br label %19

13:                                               ; preds = %8, %7, %0
  %14 = landingpad { ptr, i32 }
          cleanup
  %15 = extractvalue { ptr, i32 } %14, 0
  store ptr %15, ptr %3, align 8
  %16 = extractvalue { ptr, i32 } %14, 1
  store i32 %16, ptr %4, align 4
  call void @_ZN6icu_779ErrorCodeD1Ev(ptr noundef nonnull align 8 dereferenceable(12) %2) #12
  call void @llvm.lifetime.end.p0(i64 16, ptr %2) #12
  br label %21

17:                                               ; preds = %10
  %18 = load i32, ptr @_ZN12_GLOBAL__N_122gAvailableLocaleCountsE, align 4, !tbaa !3
  store i32 %18, ptr %1, align 4
  store i32 1, ptr %5, align 4
  br label %19

19:                                               ; preds = %17, %12
  call void @_ZN6icu_779ErrorCodeD1Ev(ptr noundef nonnull align 8 dereferenceable(12) %2) #12
  call void @llvm.lifetime.end.p0(i64 16, ptr %2) #12
  %20 = load i32, ptr %1, align 4
  ret i32 %20

21:                                               ; preds = %13
  %22 = load ptr, ptr %3, align 8
  %23 = load i32, ptr %4, align 4
  %24 = insertvalue { ptr, i32 } poison, ptr %22, 0
  %25 = insertvalue { ptr, i32 } %24, i32 %23, 1
  resume { ptr, i32 } %25
}

; Function Attrs: mustprogress uwtable
define void @_ZN6icu_7721locale_available_initEv() #0 personality ptr @__gxx_personality_v0 {
  %1 = alloca ptr, align 8
  %2 = alloca i64, align 8
  %3 = alloca i1, align 1
  %4 = alloca ptr, align 8
  %5 = alloca ptr, align 8
  %6 = alloca i1, align 1
  %7 = alloca ptr, align 8
  %8 = alloca i32, align 4
  %9 = alloca i32, align 4
  %10 = call i32 @uloc_countAvailable_77()
  store i32 %10, ptr @_ZN6icu_77L24availableLocaleListCountE, align 4, !tbaa !3
  %11 = load i32, ptr @_ZN6icu_77L24availableLocaleListCountE, align 4, !tbaa !3
  %12 = icmp ne i32 %11, 0
  br i1 %12, label %13, label %58

13:                                               ; preds = %0
  %14 = load i32, ptr @_ZN6icu_77L24availableLocaleListCountE, align 4, !tbaa !3
  %15 = sext i32 %14 to i64
  %16 = call { i64, i1 } @llvm.umul.with.overflow.i64(i64 %15, i64 224)
  %17 = extractvalue { i64, i1 } %16, 1
  %18 = extractvalue { i64, i1 } %16, 0
  %19 = call { i64, i1 } @llvm.uadd.with.overflow.i64(i64 %18, i64 8)
  %20 = extractvalue { i64, i1 } %19, 1
  %21 = or i1 %17, %20
  %22 = extractvalue { i64, i1 } %19, 0
  %23 = select i1 %21, i64 -1, i64 %22
  %24 = call noundef ptr @_ZN6icu_777UMemorynaEm(i64 noundef %23) #12
  %25 = icmp eq ptr %24, null
  store i1 false, ptr %3, align 1
  store i1 false, ptr %6, align 1
  br i1 %25, label %37, label %26

26:                                               ; preds = %13
  store ptr %24, ptr %1, align 8
  store i64 %23, ptr %2, align 8
  store i1 true, ptr %3, align 1
  store i64 %15, ptr %24, align 8
  %27 = getelementptr inbounds i8, ptr %24, i64 8
  %28 = icmp eq i64 %15, 0
  br i1 %28, label %36, label %29

29:                                               ; preds = %26
  %30 = getelementptr inbounds %"class.icu_77::Locale", ptr %27, i64 %15
  br label %31

31:                                               ; preds = %33, %29
  %32 = phi ptr [ %27, %29 ], [ %34, %33 ]
  store ptr %27, ptr %4, align 8
  store ptr %32, ptr %5, align 8
  store i1 true, ptr %6, align 1
  invoke void @_ZN6icu_776LocaleC1Ev(ptr noundef nonnull align 8 dereferenceable(217) %32)
          to label %33 unwind label %39

33:                                               ; preds = %31
  %34 = getelementptr inbounds %"class.icu_77::Locale", ptr %32, i64 1
  %35 = icmp eq ptr %34, %30
  br i1 %35, label %36, label %31

36:                                               ; preds = %26, %33
  br label %37

37:                                               ; preds = %36, %13
  %38 = phi ptr [ %27, %36 ], [ null, %13 ]
  store ptr %38, ptr @_ZN6icu_77L19availableLocaleListE, align 8, !tbaa !7
  br label %58

39:                                               ; preds = %31
  %40 = landingpad { ptr, i32 }
          cleanup
  %41 = extractvalue { ptr, i32 } %40, 0
  store ptr %41, ptr %7, align 8
  %42 = extractvalue { ptr, i32 } %40, 1
  store i32 %42, ptr %8, align 4
  %43 = load i1, ptr %6, align 1
  br i1 %43, label %44, label %53

44:                                               ; preds = %39
  %45 = load ptr, ptr %4, align 8
  %46 = load ptr, ptr %5, align 8
  %47 = icmp eq ptr %45, %46
  br i1 %47, label %52, label %48

48:                                               ; preds = %48, %44
  %49 = phi ptr [ %46, %44 ], [ %50, %48 ]
  %50 = getelementptr inbounds %"class.icu_77::Locale", ptr %49, i64 -1
  call void @_ZN6icu_776LocaleD1Ev(ptr noundef nonnull align 8 dereferenceable(217) %50) #12
  %51 = icmp eq ptr %50, %45
  br i1 %51, label %52, label %48

52:                                               ; preds = %48, %44
  br label %53

53:                                               ; preds = %52, %39
  %54 = load i1, ptr %3, align 1
  br i1 %54, label %55, label %57

55:                                               ; preds = %53
  %56 = load ptr, ptr %1, align 8
  call void @_ZN6icu_777UMemorydaEPv(ptr noundef %56) #12
  br label %57

57:                                               ; preds = %55, %53
  br label %80

58:                                               ; preds = %37, %0
  %59 = load ptr, ptr @_ZN6icu_77L19availableLocaleListE, align 8, !tbaa !7
  %60 = icmp eq ptr %59, null
  br i1 %60, label %61, label %62

61:                                               ; preds = %58
  store i32 0, ptr @_ZN6icu_77L24availableLocaleListCountE, align 4, !tbaa !3
  br label %62

62:                                               ; preds = %61, %58
  call void @llvm.lifetime.start.p0(i64 4, ptr %9) #12
  %63 = load i32, ptr @_ZN6icu_77L24availableLocaleListCountE, align 4, !tbaa !3
  %64 = sub nsw i32 %63, 1
  store i32 %64, ptr %9, align 4, !tbaa !3
  br label %65

65:                                               ; preds = %76, %62
  %66 = load i32, ptr %9, align 4, !tbaa !3
  %67 = icmp sge i32 %66, 0
  br i1 %67, label %69, label %68

68:                                               ; preds = %65
  call void @llvm.lifetime.end.p0(i64 4, ptr %9) #12
  br label %79

69:                                               ; preds = %65
  %70 = load ptr, ptr @_ZN6icu_77L19availableLocaleListE, align 8, !tbaa !7
  %71 = load i32, ptr %9, align 4, !tbaa !3
  %72 = sext i32 %71 to i64
  %73 = getelementptr inbounds %"class.icu_77::Locale", ptr %70, i64 %72
  %74 = load i32, ptr %9, align 4, !tbaa !3
  %75 = call ptr @uloc_getAvailable_77(i32 noundef %74)
  call void @_ZN6icu_776Locale14setFromPOSIXIDEPKc(ptr noundef nonnull align 8 dereferenceable(217) %73, ptr noundef %75)
  br label %76

76:                                               ; preds = %69
  %77 = load i32, ptr %9, align 4, !tbaa !3
  %78 = add nsw i32 %77, -1
  store i32 %78, ptr %9, align 4, !tbaa !3
  br label %65, !llvm.loop !10

79:                                               ; preds = %68
  call void @ucln_common_registerCleanup_77(i32 noundef 9, ptr noundef @_ZN6icu_7712_GLOBAL__N_124locale_available_cleanupEv)
  ret void

80:                                               ; preds = %57
  %81 = load ptr, ptr %7, align 8
  %82 = load i32, ptr %8, align 4
  %83 = insertvalue { ptr, i32 } poison, ptr %81, 0
  %84 = insertvalue { ptr, i32 } %83, i32 %82, 1
  resume { ptr, i32 } %84
}