; Function Attrs: mustprogress uwtable
define void @_ZN6icu_7721locale_available_initEv() local_unnamed_addr #0 personality ptr @__gxx_personality_v0 {
  %1 = alloca %"class.icu_77::ErrorCode", align 8
  %2 = alloca %"class.icu_77::ErrorCode", align 8
  call void @llvm.lifetime.start.p0(i64 16, ptr nonnull %2) #14
  store ptr getelementptr inbounds nuw inrange(-16, 24) (i8, ptr @_ZTVN6icu_779ErrorCodeE, i64 16), ptr %2, align 8, !tbaa !3
  %3 = getelementptr inbounds nuw i8, ptr %2, i64 8
  store i32 0, ptr %3, align 8, !tbaa !6
  invoke fastcc void @_ZN12_GLOBAL__N_122_load_installedLocalesER10UErrorCode(ptr noundef nonnull align 4 dereferenceable(4) %3)
          to label %uloc_countAvailable_77.exit unwind label %4

common.resume:                                    ; preds = %43, %.loopexit, %4
  %common.resume.op = phi { ptr, i32 } [ %5, %4 ], [ %24, %.loopexit ], [ %44, %43 ]
  resume { ptr, i32 } %common.resume.op

4:                                                ; preds = %0
  %5 = landingpad { ptr, i32 }
          cleanup
  call void @_ZN6icu_779ErrorCodeD1Ev(ptr noundef nonnull align 8 dereferenceable(12) %2) #14
  call void @llvm.lifetime.end.p0(i64 16, ptr nonnull %2) #14
  br label %common.resume

uloc_countAvailable_77.exit:                      ; preds = %0
  %6 = load i32, ptr %3, align 8, !tbaa !6
  %7 = load i32, ptr @_ZN12_GLOBAL__N_122gAvailableLocaleCountsE, align 4
  %.inv.i = icmp sgt i32 %6, 0
  %.0.i = select i1 %.inv.i, i32 0, i32 %7
  call void @_ZN6icu_779ErrorCodeD1Ev(ptr noundef nonnull align 8 dereferenceable(12) %2) #14
  call void @llvm.lifetime.end.p0(i64 16, ptr nonnull %2) #14
  store i32 %.0.i, ptr @_ZN6icu_77L24availableLocaleListCountE, align 4, !tbaa !10
  %.not = icmp eq i32 %.0.i, 0
  br i1 %.not, label %thread-pre-split, label %8

8:                                                ; preds = %uloc_countAvailable_77.exit
  %9 = sext i32 %.0.i to i64
  %10 = call { i64, i1 } @llvm.umul.with.overflow.i64(i64 %9, i64 224)
  %11 = extractvalue { i64, i1 } %10, 1
  %12 = extractvalue { i64, i1 } %10, 0
  %13 = or disjoint i64 %12, 8
  %14 = select i1 %11, i64 -1, i64 %13
  %15 = call noundef ptr @_ZN6icu_777UMemorynaEm(i64 noundef %14) #14
  %16 = icmp eq ptr %15, null
  br i1 %16, label %.loopexit21, label %17

17:                                               ; preds = %8
  store i64 %9, ptr %15, align 8
  %.ptr15 = getelementptr inbounds nuw i8, ptr %15, i64 8
  %18 = getelementptr inbounds %"class.icu_77::Locale", ptr %.ptr15, i64 %9
  br label %19

19:                                               ; preds = %20, %17
  %.idx = phi i64 [ 8, %17 ], [ %.add, %20 ]
  %.ptr.ptr = getelementptr inbounds nuw i8, ptr %15, i64 %.idx
  invoke void @_ZN6icu_776LocaleC1Ev(ptr noundef nonnull align 8 dereferenceable(217) %.ptr.ptr)
          to label %20 unwind label %23

20:                                               ; preds = %19
  %.add = add nuw nsw i64 %.idx, 224
  %.ptr14 = getelementptr inbounds nuw i8, ptr %15, i64 %.add
  %21 = icmp eq ptr %.ptr14, %18
  br i1 %21, label %.loopexit21, label %19

.loopexit21:                                      ; preds = %20, %8
  %22 = phi ptr [ null, %8 ], [ %.ptr15, %20 ]
  store ptr %22, ptr @_ZN6icu_77L19availableLocaleListE, align 8, !tbaa !12
  br label %27

23:                                               ; preds = %19
  %24 = landingpad { ptr, i32 }
          cleanup
  %25 = icmp eq i64 %.idx, 8
  br i1 %25, label %.loopexit, label %.preheader

.preheader:                                       ; preds = %23, %.preheader
  %.idx16 = phi i64 [ %.add17, %.preheader ], [ %.idx, %23 ]
  %.add17 = add nsw i64 %.idx16, -224
  %.ptr19 = getelementptr inbounds i8, ptr %15, i64 %.add17
  call void @_ZN6icu_776LocaleD1Ev(ptr noundef nonnull align 8 dereferenceable(217) %.ptr19) #14
  %26 = icmp eq i64 %.add17, 8
  br i1 %26, label %.loopexit, label %.preheader

.loopexit:                                        ; preds = %.preheader, %23
  call void @_ZN6icu_777UMemorydaEPv(ptr noundef nonnull %15) #14
  br label %common.resume

thread-pre-split:                                 ; preds = %uloc_countAvailable_77.exit
  %.pr = load ptr, ptr @_ZN6icu_77L19availableLocaleListE, align 8, !tbaa !12
  br label %27

27:                                               ; preds = %thread-pre-split, %.loopexit21
  %28 = phi ptr [ %.pr, %thread-pre-split ], [ %22, %.loopexit21 ]
  %29 = icmp eq ptr %28, null
  br i1 %29, label %.thread, label %30

.thread:                                          ; preds = %27
  store i32 0, ptr @_ZN6icu_77L24availableLocaleListCountE, align 4, !tbaa !10
  br label %._crit_edge

30:                                               ; preds = %27
  %.pre = load i32, ptr @_ZN6icu_77L24availableLocaleListCountE, align 4, !tbaa !10
  %31 = icmp sgt i32 %.pre, 0
  br i1 %31, label %.lr.ph, label %._crit_edge

.lr.ph:                                           ; preds = %30
  %32 = getelementptr inbounds nuw i8, ptr %1, i64 8
  %33 = zext nneg i32 %.pre to i64
  br label %34

._crit_edge:                                      ; preds = %uloc_getAvailable_77.exit, %.thread, %30
  call void @ucln_common_registerCleanup_77(i32 noundef 9, ptr noundef nonnull @_ZN6icu_7712_GLOBAL__N_124locale_available_cleanupEv)
  ret void

34:                                               ; preds = %.lr.ph, %uloc_getAvailable_77.exit
  %indvars.iv = phi i64 [ %33, %.lr.ph ], [ %indvars.iv.next, %uloc_getAvailable_77.exit ]
  %indvars.iv.next = add nsw i64 %indvars.iv, -1
  %35 = load ptr, ptr @_ZN6icu_77L19availableLocaleListE, align 8, !tbaa !12
  %36 = getelementptr inbounds nuw %"class.icu_77::Locale", ptr %35, i64 %indvars.iv.next
  call void @llvm.lifetime.start.p0(i64 16, ptr nonnull %1) #14
  store ptr getelementptr inbounds nuw inrange(-16, 24) (i8, ptr @_ZTVN6icu_779ErrorCodeE, i64 16), ptr %1, align 8, !tbaa !3
  store i32 0, ptr %32, align 8, !tbaa !6
  invoke fastcc void @_ZN12_GLOBAL__N_122_load_installedLocalesER10UErrorCode(ptr noundef nonnull align 4 dereferenceable(4) %32)
          to label %37 unwind label %43

37:                                               ; preds = %34
  %38 = load i32, ptr %32, align 8, !tbaa !6
  %39 = icmp sgt i32 %38, 0
  %40 = load i32, ptr @_ZN12_GLOBAL__N_122gAvailableLocaleCountsE, align 4
  %41 = sext i32 %40 to i64
  %42 = icmp sgt i64 %indvars.iv.next, %41
  %or.cond.i = select i1 %39, i1 true, i1 %42
  br i1 %or.cond.i, label %uloc_getAvailable_77.exit, label %45

43:                                               ; preds = %34
  %44 = landingpad { ptr, i32 }
          cleanup
  call void @_ZN6icu_779ErrorCodeD1Ev(ptr noundef nonnull align 8 dereferenceable(12) %1) #14
  call void @llvm.lifetime.end.p0(i64 16, ptr nonnull %1) #14
  br label %common.resume

45:                                               ; preds = %37
  %46 = load ptr, ptr @_ZN12_GLOBAL__N_121gAvailableLocaleNamesE, align 16, !tbaa !15
  %47 = getelementptr inbounds nuw ptr, ptr %46, i64 %indvars.iv.next
  %48 = load ptr, ptr %47, align 8, !tbaa !18
  br label %uloc_getAvailable_77.exit

uloc_getAvailable_77.exit:                        ; preds = %37, %45
  %.0.i20 = phi ptr [ %48, %45 ], [ null, %37 ]
  call void @_ZN6icu_779ErrorCodeD1Ev(ptr noundef nonnull align 8 dereferenceable(12) %1) #14
  call void @llvm.lifetime.end.p0(i64 16, ptr nonnull %1) #14
  call void @_ZN6icu_776Locale14setFromPOSIXIDEPKc(ptr noundef nonnull align 8 dereferenceable(217) %36, ptr noundef %.0.i20)
  %49 = icmp samesign ugt i64 %indvars.iv, 1
  br i1 %49, label %34, label %._crit_edge, !llvm.loop !20
}